target datalayout = "e-m:e-p270:32:32-p271:32:32-p272:64:64-i64:64-i128:128-f80:128-n8:16:32:64-S128"
target triple = "x86_64-pc-linux-gnu"

; Function Attrs: nounwind uwtable
define internal void @SDL_ConvertStereoTo61(ptr noundef %0, ptr noundef %1, i32 noundef %2) #0 {
  %4 = alloca ptr, align 8
  %5 = alloca ptr, align 8
  %6 = alloca i32, align 4
  %7 = alloca i32, align 4
  store ptr %0, ptr %4, align 8
  store ptr %1, ptr %5, align 8
  store i32 %2, ptr %6, align 4
  call void @llvm.lifetime.start.p0(i64 4, ptr %7) #7
  %8 = load i32, ptr %6, align 4
  %9 = sub nsw i32 %8, 1
  %10 = mul nsw i32 %9, 2
  %11 = load ptr, ptr %5, align 8
  %12 = sext i32 %10 to i64
  %13 = getelementptr inbounds float, ptr %11, i64 %12
  store ptr %13, ptr %5, align 8
  %14 = load i32, ptr %6, align 4
  %15 = sub nsw i32 %14, 1
  %16 = mul nsw i32 %15, 7
  %17 = load ptr, ptr %4, align 8
  %18 = sext i32 %16 to i64
  %19 = getelementptr inbounds float, ptr %17, i64 %18
  store ptr %19, ptr %4, align 8
  %20 = load i32, ptr %6, align 4
  store i32 %20, ptr %7, align 4
  br label %21

21:                                               ; preds = %45, %3
  %22 = load i32, ptr %7, align 4
  %23 = icmp ne i32 %22, 0
  br i1 %23, label %24, label %52

24:                                               ; preds = %21
  %25 = load ptr, ptr %4, align 8
  %26 = getelementptr inbounds float, ptr %25, i64 6
  store float 0.000000e+00, ptr %26, align 4
  %27 = load ptr, ptr %4, align 8
  %28 = getelementptr inbounds float, ptr %27, i64 5
  store float 0.000000e+00, ptr %28, align 4
  %29 = load ptr, ptr %4, align 8
  %30 = getelementptr inbounds float, ptr %29, i64 4
  store float 0.000000e+00, ptr %30, align 4
  %31 = load ptr, ptr %4, align 8
  %32 = getelementptr inbounds float, ptr %31, i64 3
  store float 0.000000e+00, ptr %32, align 4
  %33 = load ptr, ptr %4, align 8
  %34 = getelementptr inbounds float, ptr %33, i64 2
  store float 0.000000e+00, ptr %34, align 4
  %35 = load ptr, ptr %5, align 8
  %36 = getelementptr inbounds float, ptr %35, i64 1
  %37 = load float, ptr %36, align 4
  %38 = load ptr, ptr %4, align 8
  %39 = getelementptr inbounds float, ptr %38, i64 1
  store float %37, ptr %39, align 4
  %40 = load ptr, ptr %5, align 8
  %41 = getelementptr inbounds float, ptr %40, i64 0
  %42 = load float, ptr %41, align 4
  %43 = load ptr, ptr %4, align 8
  %44 = getelementptr inbounds float, ptr %43, i64 0
  store float %42, ptr %44, align 4
  br label %45

45:                                               ; preds = %24
  %46 = load i32, ptr %7, align 4
  %47 = add nsw i32 %46, -1
  store i32 %47, ptr %7, align 4
  %48 = load ptr, ptr %5, align 8
  %49 = getelementptr inbounds float, ptr %48, i64 -2
  store ptr %49, ptr %5, align 8
  %50 = load ptr, ptr %4, align 8
  %51 = getelementptr inbounds float, ptr %50, i64 -7
  store ptr %51, ptr %4, align 8
  br label %21, !llvm.loop !56

52:                                               ; preds = %21
  call void @llvm.lifetime.end.p0(i64 4, ptr %7) #7
  ret void
}